; Function Attrs: mustprogress nofree nounwind willreturn memory(argmem: read) uwtable
define hidden noundef ptr @_ZN10duckdb_re27utfruneEPKci(ptr noundef readonly %0, i32 noundef %1) local_unnamed_addr #3 {
  %3 = icmp slt i32 %1, 128
  br i1 %3, label %4, label %.preheader

4:                                                ; preds = %2
  %5 = tail call noundef ptr @strchr(ptr noundef nonnull dereferenceable(1) %0, i32 noundef %1) #5
  br label %.loopexit

.preheader:                                       ; preds = %2, %.backedge
  %.015 = phi ptr [ %13, %.backedge ], [ %0, %2 ]
  %6 = load i8, ptr %.015, align 1, !tbaa !3
  %7 = zext i8 %6 to i32
  %8 = icmp sgt i8 %6, -1
  br i1 %8, label %9, label %14

9:                                                ; preds = %.preheader
  %10 = icmp eq i8 %6, 0
  br i1 %10, label %.loopexit, label %11

11:                                               ; preds = %9
  %12 = icmp eq i32 %1, %7
  br i1 %12, label %.loopexit, label %.backedge

.backedge:                                        ; preds = %11, %_ZN10duckdb_re210chartoruneEPiPKc.exit
  %.sink = phi i64 [ %.0.i, %_ZN10duckdb_re210chartoruneEPiPKc.exit ], [ 1, %11 ]
  %13 = getelementptr inbounds nuw i8, ptr %.015, i64 %.sink
  br label %.preheader, !llvm.loop !10

14:                                               ; preds = %.preheader
  %15 = getelementptr inbounds nuw i8, ptr %.015, i64 1
  %16 = load i8, ptr %15, align 1, !tbaa !3
  %17 = xor i8 %16, -128
  %18 = zext i8 %17 to i32
  %.not.i = icmp ult i8 %17, 64
  br i1 %.not.i, label %19, label %56

19:                                               ; preds = %14
  %20 = icmp samesign ult i8 %6, -32
  br i1 %20, label %21, label %27

21:                                               ; preds = %19
  %22 = icmp samesign ult i8 %6, -64
  br i1 %22, label %56, label %23

23:                                               ; preds = %21
  %24 = shl nuw nsw i32 %7, 6
  %.masked41.i = and i32 %24, 1984
  %25 = or disjoint i32 %.masked41.i, %18
  %26 = icmp samesign ult i32 %25, 128
  br i1 %26, label %56, label %_ZN10duckdb_re210chartoruneEPiPKc.exit

27:                                               ; preds = %19
  %28 = getelementptr inbounds nuw i8, ptr %.015, i64 2
  %29 = load i8, ptr %28, align 1, !tbaa !3
  %30 = xor i8 %29, -128
  %31 = zext i8 %30 to i32
  %.not38.i = icmp ult i8 %30, 64
  br i1 %.not38.i, label %32, label %56

32:                                               ; preds = %27
  %33 = icmp samesign ult i8 %6, -16
  br i1 %33, label %34, label %40

34:                                               ; preds = %32
  %35 = shl nuw nsw i32 %7, 12
  %36 = shl nuw nsw i32 %18, 6
  %.masked40.i = and i32 %35, 61440
  %.masked39.i = or disjoint i32 %36, %.masked40.i
  %37 = icmp samesign ult i32 %.masked39.i, 2048
  br i1 %37, label %56, label %38

38:                                               ; preds = %34
  %39 = or disjoint i32 %.masked39.i, %31
  br label %_ZN10duckdb_re210chartoruneEPiPKc.exit

40:                                               ; preds = %32
  %41 = getelementptr inbounds nuw i8, ptr %.015, i64 3
  %42 = load i8, ptr %41, align 1, !tbaa !3
  %43 = xor i8 %42, -128
  %44 = icmp ult i8 %43, 64
  %45 = icmp samesign ult i8 %6, -8
  %or.cond.i = and i1 %45, %44
  br i1 %or.cond.i, label %46, label %56

46:                                               ; preds = %40
  %47 = shl nuw nsw i32 %7, 12
  %48 = shl nuw nsw i32 %18, 6
  %49 = or disjoint i32 %48, %47
  %50 = or disjoint i32 %49, %31
  %51 = shl nuw nsw i32 %50, 6
  %.masked.i = and i32 %51, 2097088
  %52 = icmp samesign ult i32 %.masked.i, 65536
  br i1 %52, label %56, label %53

53:                                               ; preds = %46
  %54 = zext nneg i8 %43 to i32
  %55 = or disjoint i32 %.masked.i, %54
  br label %_ZN10duckdb_re210chartoruneEPiPKc.exit

56:                                               ; preds = %46, %40, %34, %27, %23, %21, %14
  br label %_ZN10duckdb_re210chartoruneEPiPKc.exit

_ZN10duckdb_re210chartoruneEPiPKc.exit:           ; preds = %23, %38, %53, %56
  %.sink.i = phi i32 [ 65533, %56 ], [ %55, %53 ], [ %39, %38 ], [ %25, %23 ]
  %.0.i = phi i64 [ 1, %56 ], [ 4, %53 ], [ 3, %38 ], [ 2, %23 ]
  %57 = icmp eq i32 %.sink.i, %1
  br i1 %57, label %.loopexit, label %.backedge

.loopexit:                                        ; preds = %_ZN10duckdb_re210chartoruneEPiPKc.exit, %11, %9, %4
  %.0 = phi ptr [ %5, %4 ], [ %.015, %_ZN10duckdb_re210chartoruneEPiPKc.exit ], [ %.015, %11 ], [ null, %9 ]
  ret ptr %.0
}